target datalayout = "e-m:e-p270:32:32-p271:32:32-p272:64:64-i64:64-i128:128-f80:128-n8:16:32:64-S128"
target triple = "x86_64-pc-linux-gnu"

@stdout = external global ptr, align 8
@.str.40 = private unnamed_addr constant [27 x i8] c"Library is not available.\0A\00", align 1
@.str.50 = private unnamed_addr constant [36 x i8] c"\09-h      : print the command usage\0A\00", align 1
@.str.52 = private unnamed_addr constant [5 x i8] c"savh\00", align 1
@.str.67 = private unnamed_addr constant [28 x i8] c"\0Ausage: print_profile [-h]\0A\00", align 1
@.str.68 = private unnamed_addr constant [43 x i8] c"\09          print the current gate profile\0A\00", align 1

; Function Attrs: nounwind uwtable
define internal i32 @Mio_CommandPrintProfile(ptr noundef %0, i32 noundef %1, ptr noundef %2) #0 {
  %4 = alloca i32, align 4
  %5 = alloca ptr, align 8
  %6 = alloca i32, align 4
  %7 = alloca ptr, align 8
  %8 = alloca ptr, align 8
  %9 = alloca ptr, align 8
  %10 = alloca i32, align 4
  %11 = alloca i32, align 4
  %12 = alloca i32, align 4
  %13 = alloca i32, align 4
  store ptr %0, ptr %5, align 8
  store i32 %1, ptr %6, align 4
  store ptr %2, ptr %7, align 8
  store i32 0, ptr %10, align 4
  store i32 0, ptr %11, align 4
  store i32 0, ptr %12, align 4
  %14 = load ptr, ptr %5, align 8
  %15 = call ptr @Abc_FrameReadOut(ptr noundef %14)
  store ptr %15, ptr %8, align 8
  %16 = load ptr, ptr %5, align 8
  %17 = call ptr @Abc_FrameReadErr(ptr noundef %16)
  store ptr %17, ptr %9, align 8
  call void (...) @Extra_UtilGetoptReset()
  br label %18

18:                                               ; preds = %36, %3
  %19 = load i32, ptr %6, align 4
  %20 = load ptr, ptr %7, align 8
  %21 = call i32 @Extra_UtilGetopt(i32 noundef %19, ptr noundef %20, ptr noundef @.str.52)
  store i32 %21, ptr %13, align 4
  %22 = icmp ne i32 %21, -1
  br i1 %22, label %23, label %37

23:                                               ; preds = %18
  %24 = load i32, ptr %13, align 4
  switch i32 %24, label %35 [
    i32 115, label %25
    i32 97, label %28
    i32 118, label %31
    i32 104, label %34
  ]

25:                                               ; preds = %23
  %26 = load i32, ptr %10, align 4
  %27 = xor i32 %26, 1
  store i32 %27, ptr %10, align 4
  br label %36

28:                                               ; preds = %23
  %29 = load i32, ptr %11, align 4
  %30 = xor i32 %29, 1
  store i32 %30, ptr %11, align 4
  br label %36

31:                                               ; preds = %23
  %32 = load i32, ptr %12, align 4
  %33 = xor i32 %32, 1
  store i32 %33, ptr %12, align 4
  br label %36

34:                                               ; preds = %23
  br label %45

35:                                               ; preds = %23
  br label %45

36:                                               ; preds = %31, %28, %25
  br label %18, !llvm.loop !8

37:                                               ; preds = %18
  %38 = call ptr (...) @Abc_FrameReadLibGen()
  %39 = icmp eq ptr %38, null
  br i1 %39, label %40, label %42

40:                                               ; preds = %37
  %41 = call i32 (ptr, ...) @printf(ptr noundef @.str.40)
  store i32 1, ptr %4, align 4
  br label %52

42:                                               ; preds = %37
  %43 = load ptr, ptr @stdout, align 8
  %44 = call ptr (...) @Abc_FrameReadLibGen()
  call void @Mio_LibraryWriteProfile(ptr noundef %43, ptr noundef %44)
  store i32 0, ptr %4, align 4
  br label %52

45:                                               ; preds = %35, %34
  %46 = load ptr, ptr %9, align 8
  %47 = call i32 (ptr, ptr, ...) @fprintf(ptr noundef %46, ptr noundef @.str.67) #6
  %48 = load ptr, ptr %9, align 8
  %49 = call i32 (ptr, ptr, ...) @fprintf(ptr noundef %48, ptr noundef @.str.68) #6
  %50 = load ptr, ptr %9, align 8
  %51 = call i32 (ptr, ptr, ...) @fprintf(ptr noundef %50, ptr noundef @.str.50) #6
  store i32 1, ptr %4, align 4
  br label %52

52:                                               ; preds = %45, %42, %40
  %53 = load i32, ptr %4, align 4
  ret i32 %53
}