; Function Attrs: nounwind uwtable
define internal range(i32 0, 2) i32 @Mio_CommandPrintProfile(ptr noundef %0, i32 noundef %1, ptr noundef %2) #0 {
  %4 = tail call ptr @Abc_FrameReadOut(ptr noundef %0) #8
  %5 = tail call ptr @Abc_FrameReadErr(ptr noundef %0) #8
  tail call void (...) @Extra_UtilGetoptReset() #8
  br label %6

6:                                                ; preds = %.backedge, %3
  %7 = tail call i32 @Extra_UtilGetopt(i32 noundef %1, ptr noundef %2, ptr noundef nonnull @.str.52) #8
  switch i32 %7, label %15 [
    i32 -1, label %8
    i32 115, label %.backedge
    i32 97, label %.backedge
    i32 118, label %.backedge
  ]

.backedge:                                        ; preds = %6, %6, %6
  br label %6, !llvm.loop !8

8:                                                ; preds = %6
  %9 = tail call ptr (...) @Abc_FrameReadLibGen() #8
  %10 = icmp eq ptr %9, null
  br i1 %10, label %11, label %12

11:                                               ; preds = %8
  %puts = tail call i32 @puts(ptr nonnull dereferenceable(1) @str.5)
  br label %19

12:                                               ; preds = %8
  %13 = load ptr, ptr @stdout, align 8
  %14 = tail call ptr (...) @Abc_FrameReadLibGen() #8
  tail call void @Mio_LibraryWriteProfile(ptr noundef %13, ptr noundef %14) #8
  br label %19

15:                                               ; preds = %6
  %16 = tail call i64 @fwrite(ptr nonnull @.str.67, i64 27, i64 1, ptr %5)
  %17 = tail call i64 @fwrite(ptr nonnull @.str.68, i64 42, i64 1, ptr %5)
  %18 = tail call i64 @fwrite(ptr nonnull @.str.50, i64 35, i64 1, ptr %5)
  br label %19

19:                                               ; preds = %15, %12, %11
  %.0 = phi i32 [ 1, %15 ], [ 1, %11 ], [ 0, %12 ]
  ret i32 %.0
}